target datalayout = "e-m:e-p270:32:32-p271:32:32-p272:64:64-i64:64-i128:128-f80:128-n8:16:32:64-S128"
target triple = "x86_64-pc-linux-gnu"

%struct.Bigint = type { ptr, i32, i32, i32, i32, [1 x i32] }

; Function Attrs: nounwind uwtable
define internal i32 @cmp(ptr noundef %0, ptr noundef %1, ptr noundef %2) #0 {
  %4 = alloca i32, align 4
  %5 = alloca ptr, align 8
  %6 = alloca ptr, align 8
  %7 = alloca ptr, align 8
  %8 = alloca ptr, align 8
  %9 = alloca ptr, align 8
  %10 = alloca ptr, align 8
  %11 = alloca ptr, align 8
  %12 = alloca i32, align 4
  %13 = alloca i32, align 4
  %14 = alloca i32, align 4
  store ptr %0, ptr %5, align 8, !tbaa !4
  store ptr %1, ptr %6, align 8, !tbaa !11
  store ptr %2, ptr %7, align 8, !tbaa !11
  call void @llvm.lifetime.start.p0(i64 8, ptr %8) #6
  call void @llvm.lifetime.start.p0(i64 8, ptr %9) #6
  call void @llvm.lifetime.start.p0(i64 8, ptr %10) #6
  call void @llvm.lifetime.start.p0(i64 8, ptr %11) #6
  call void @llvm.lifetime.start.p0(i64 4, ptr %12) #6
  call void @llvm.lifetime.start.p0(i64 4, ptr %13) #6
  %15 = load ptr, ptr %6, align 8, !tbaa !11
  %16 = getelementptr inbounds nuw %struct.Bigint, ptr %15, i32 0, i32 4
  %17 = load i32, ptr %16, align 4, !tbaa !51
  store i32 %17, ptr %12, align 4, !tbaa !9
  %18 = load ptr, ptr %7, align 8, !tbaa !11
  %19 = getelementptr inbounds nuw %struct.Bigint, ptr %18, i32 0, i32 4
  %20 = load i32, ptr %19, align 4, !tbaa !51
  store i32 %20, ptr %13, align 4, !tbaa !9
  %21 = load i32, ptr %13, align 4, !tbaa !9
  %22 = load i32, ptr %12, align 4, !tbaa !9
  %23 = sub nsw i32 %22, %21
  store i32 %23, ptr %12, align 4, !tbaa !9
  %24 = icmp ne i32 %23, 0
  br i1 %24, label %25, label %27

25:                                               ; preds = %3
  %26 = load i32, ptr %12, align 4, !tbaa !9
  store i32 %26, ptr %4, align 4
  store i32 1, ptr %14, align 4
  br label %64

27:                                               ; preds = %3
  %28 = load ptr, ptr %6, align 8, !tbaa !11
  %29 = getelementptr inbounds nuw %struct.Bigint, ptr %28, i32 0, i32 5
  %30 = getelementptr inbounds [1 x i32], ptr %29, i64 0, i64 0
  store ptr %30, ptr %9, align 8, !tbaa !60
  %31 = load ptr, ptr %9, align 8, !tbaa !60
  %32 = load i32, ptr %13, align 4, !tbaa !9
  %33 = sext i32 %32 to i64
  %34 = getelementptr inbounds i32, ptr %31, i64 %33
  store ptr %34, ptr %8, align 8, !tbaa !60
  %35 = load ptr, ptr %7, align 8, !tbaa !11
  %36 = getelementptr inbounds nuw %struct.Bigint, ptr %35, i32 0, i32 5
  %37 = getelementptr inbounds [1 x i32], ptr %36, i64 0, i64 0
  store ptr %37, ptr %11, align 8, !tbaa !60
  %38 = load ptr, ptr %11, align 8, !tbaa !60
  %39 = load i32, ptr %13, align 4, !tbaa !9
  %40 = sext i32 %39 to i64
  %41 = getelementptr inbounds i32, ptr %38, i64 %40
  store ptr %41, ptr %10, align 8, !tbaa !60
  br label %42

42:                                               ; preds = %62, %27
  %43 = load ptr, ptr %8, align 8, !tbaa !60
  %44 = getelementptr inbounds i32, ptr %43, i32 -1
  store ptr %44, ptr %8, align 8, !tbaa !60
  %45 = load i32, ptr %44, align 4, !tbaa !9
  %46 = load ptr, ptr %10, align 8, !tbaa !60
  %47 = getelementptr inbounds i32, ptr %46, i32 -1
  store ptr %47, ptr %10, align 8, !tbaa !60
  %48 = load i32, ptr %47, align 4, !tbaa !9
  %49 = icmp ne i32 %45, %48
  br i1 %49, label %50, label %57

50:                                               ; preds = %42
  %51 = load ptr, ptr %8, align 8, !tbaa !60
  %52 = load i32, ptr %51, align 4, !tbaa !9
  %53 = load ptr, ptr %10, align 8, !tbaa !60
  %54 = load i32, ptr %53, align 4, !tbaa !9
  %55 = icmp ult i32 %52, %54
  %56 = select i1 %55, i32 -1, i32 1
  store i32 %56, ptr %4, align 4
  store i32 1, ptr %14, align 4
  br label %64

57:                                               ; preds = %42
  %58 = load ptr, ptr %8, align 8, !tbaa !60
  %59 = load ptr, ptr %9, align 8, !tbaa !60
  %60 = icmp ule ptr %58, %59
  br i1 %60, label %61, label %62

61:                                               ; preds = %57
  br label %63

62:                                               ; preds = %57
  br label %42

63:                                               ; preds = %61
  store i32 0, ptr %4, align 4
  store i32 1, ptr %14, align 4
  br label %64

64:                                               ; preds = %63, %50, %25
  call void @llvm.lifetime.end.p0(i64 4, ptr %13) #6
  call void @llvm.lifetime.end.p0(i64 4, ptr %12) #6
  call void @llvm.lifetime.end.p0(i64 8, ptr %11) #6
  call void @llvm.lifetime.end.p0(i64 8, ptr %10) #6
  call void @llvm.lifetime.end.p0(i64 8, ptr %9) #6
  call void @llvm.lifetime.end.p0(i64 8, ptr %8) #6
  %65 = load i32, ptr %4, align 4
  ret i32 %65
}

; Function Attrs: nounwind uwtable
define internal i32 @quorem(ptr noundef %0, ptr noundef %1, ptr noundef %2) #0 {
  %4 = alloca i32, align 4
  %5 = alloca ptr, align 8
  %6 = alloca ptr, align 8
  %7 = alloca ptr, align 8
  %8 = alloca i32, align 4
  %9 = alloca ptr, align 8
  %10 = alloca ptr, align 8
  %11 = alloca i32, align 4
  %12 = alloca ptr, align 8
  %13 = alloca ptr, align 8
  %14 = alloca i64, align 8
  %15 = alloca i64, align 8
  %16 = alloca i64, align 8
  %17 = alloca i64, align 8
  %18 = alloca i32, align 4
  store ptr %0, ptr %5, align 8, !tbaa !4
  store ptr %1, ptr %6, align 8, !tbaa !11
  store ptr %2, ptr %7, align 8, !tbaa !11
  call void @llvm.lifetime.start.p0(i64 4, ptr %8) #6
  call void @llvm.lifetime.start.p0(i64 8, ptr %9) #6
  call void @llvm.lifetime.start.p0(i64 8, ptr %10) #6
  call void @llvm.lifetime.start.p0(i64 4, ptr %11) #6
  call void @llvm.lifetime.start.p0(i64 8, ptr %12) #6
  call void @llvm.lifetime.start.p0(i64 8, ptr %13) #6
  call void @llvm.lifetime.start.p0(i64 8, ptr %14) #6
  call void @llvm.lifetime.start.p0(i64 8, ptr %15) #6
  call void @llvm.lifetime.start.p0(i64 8, ptr %16) #6
  call void @llvm.lifetime.start.p0(i64 8, ptr %17) #6
  %19 = load ptr, ptr %7, align 8, !tbaa !11
  %20 = getelementptr inbounds nuw %struct.Bigint, ptr %19, i32 0, i32 4
  %21 = load i32, ptr %20, align 4, !tbaa !51
  store i32 %21, ptr %8, align 4, !tbaa !9
  %22 = load ptr, ptr %6, align 8, !tbaa !11
  %23 = getelementptr inbounds nuw %struct.Bigint, ptr %22, i32 0, i32 4
  %24 = load i32, ptr %23, align 4, !tbaa !51
  %25 = load i32, ptr %8, align 4, !tbaa !9
  %26 = icmp slt i32 %24, %25
  br i1 %26, label %27, label %28

27:                                               ; preds = %3
  store i32 0, ptr %4, align 4
  store i32 1, ptr %18, align 4
  br label %191

28:                                               ; preds = %3
  %29 = load ptr, ptr %7, align 8, !tbaa !11
  %30 = getelementptr inbounds nuw %struct.Bigint, ptr %29, i32 0, i32 5
  %31 = getelementptr inbounds [1 x i32], ptr %30, i64 0, i64 0
  store ptr %31, ptr %12, align 8, !tbaa !60
  %32 = load ptr, ptr %12, align 8, !tbaa !60
  %33 = load i32, ptr %8, align 4, !tbaa !9
  %34 = add nsw i32 %33, -1
  store i32 %34, ptr %8, align 4, !tbaa !9
  %35 = sext i32 %34 to i64
  %36 = getelementptr inbounds i32, ptr %32, i64 %35
  store ptr %36, ptr %13, align 8, !tbaa !60
  %37 = load ptr, ptr %6, align 8, !tbaa !11
  %38 = getelementptr inbounds nuw %struct.Bigint, ptr %37, i32 0, i32 5
  %39 = getelementptr inbounds [1 x i32], ptr %38, i64 0, i64 0
  store ptr %39, ptr %9, align 8, !tbaa !60
  %40 = load ptr, ptr %9, align 8, !tbaa !60
  %41 = load i32, ptr %8, align 4, !tbaa !9
  %42 = sext i32 %41 to i64
  %43 = getelementptr inbounds i32, ptr %40, i64 %42
  store ptr %43, ptr %10, align 8, !tbaa !60
  %44 = load ptr, ptr %10, align 8, !tbaa !60
  %45 = load i32, ptr %44, align 4, !tbaa !9
  %46 = load ptr, ptr %13, align 8, !tbaa !60
  %47 = load i32, ptr %46, align 4, !tbaa !9
  %48 = add i32 %47, 1
  %49 = udiv i32 %45, %48
  store i32 %49, ptr %11, align 4, !tbaa !9
  %50 = load i32, ptr %11, align 4, !tbaa !9
  %51 = icmp ne i32 %50, 0
  br i1 %51, label %52, label %113

52:                                               ; preds = %28
  store i64 0, ptr %14, align 8, !tbaa !63
  store i64 0, ptr %15, align 8, !tbaa !63
  br label %53

53:                                               ; preds = %81, %52
  %54 = load ptr, ptr %12, align 8, !tbaa !60
  %55 = getelementptr inbounds nuw i32, ptr %54, i32 1
  store ptr %55, ptr %12, align 8, !tbaa !60
  %56 = load i32, ptr %54, align 4, !tbaa !9
  %57 = zext i32 %56 to i64
  %58 = load i32, ptr %11, align 4, !tbaa !9
  %59 = zext i32 %58 to i64
  %60 = mul i64 %57, %59
  %61 = load i64, ptr %15, align 8, !tbaa !63
  %62 = add i64 %60, %61
  store i64 %62, ptr %17, align 8, !tbaa !63
  %63 = load i64, ptr %17, align 8, !tbaa !63
  %64 = lshr i64 %63, 32
  store i64 %64, ptr %15, align 8, !tbaa !63
  %65 = load ptr, ptr %9, align 8, !tbaa !60
  %66 = load i32, ptr %65, align 4, !tbaa !9
  %67 = zext i32 %66 to i64
  %68 = load i64, ptr %17, align 8, !tbaa !63
  %69 = and i64 %68, 4294967295
  %70 = sub i64 %67, %69
  %71 = load i64, ptr %14, align 8, !tbaa !63
  %72 = sub i64 %70, %71
  store i64 %72, ptr %16, align 8, !tbaa !63
  %73 = load i64, ptr %16, align 8, !tbaa !63
  %74 = lshr i64 %73, 32
  %75 = and i64 %74, 1
  store i64 %75, ptr %14, align 8, !tbaa !63
  %76 = load i64, ptr %16, align 8, !tbaa !63
  %77 = and i64 %76, 4294967295
  %78 = trunc i64 %77 to i32
  %79 = load ptr, ptr %9, align 8, !tbaa !60
  %80 = getelementptr inbounds nuw i32, ptr %79, i32 1
  store ptr %80, ptr %9, align 8, !tbaa !60
  store i32 %78, ptr %79, align 4, !tbaa !9
  br label %81

81:                                               ; preds = %53
  %82 = load ptr, ptr %12, align 8, !tbaa !60
  %83 = load ptr, ptr %13, align 8, !tbaa !60
  %84 = icmp ule ptr %82, %83
  br i1 %84, label %53, label %85, !llvm.loop !89

85:                                               ; preds = %81
  %86 = load ptr, ptr %10, align 8, !tbaa !60
  %87 = load i32, ptr %86, align 4, !tbaa !9
  %88 = icmp ne i32 %87, 0
  br i1 %88, label %112, label %89

89:                                               ; preds = %85
  %90 = load ptr, ptr %6, align 8, !tbaa !11
  %91 = getelementptr inbounds nuw %struct.Bigint, ptr %90, i32 0, i32 5
  %92 = getelementptr inbounds [1 x i32], ptr %91, i64 0, i64 0
  store ptr %92, ptr %9, align 8, !tbaa !60
  br label %93

93:                                               ; preds = %105, %89
  %94 = load ptr, ptr %10, align 8, !tbaa !60
  %95 = getelementptr inbounds i32, ptr %94, i32 -1
  store ptr %95, ptr %10, align 8, !tbaa !60
  %96 = load ptr, ptr %9, align 8, !tbaa !60
  %97 = icmp ugt ptr %95, %96
  br i1 %97, label %98, label %103

98:                                               ; preds = %93
  %99 = load ptr, ptr %10, align 8, !tbaa !60
  %100 = load i32, ptr %99, align 4, !tbaa !9
  %101 = icmp ne i32 %100, 0
  %102 = xor i1 %101, true
  br label %103

103:                                              ; preds = %98, %93
  %104 = phi i1 [ false, %93 ], [ %102, %98 ]
  br i1 %104, label %105, label %108

105:                                              ; preds = %103
  %106 = load i32, ptr %8, align 4, !tbaa !9
  %107 = add nsw i32 %106, -1
  store i32 %107, ptr %8, align 4, !tbaa !9
  br label %93, !llvm.loop !90

108:                                              ; preds = %103
  %109 = load i32, ptr %8, align 4, !tbaa !9
  %110 = load ptr, ptr %6, align 8, !tbaa !11
  %111 = getelementptr inbounds nuw %struct.Bigint, ptr %110, i32 0, i32 4
  store i32 %109, ptr %111, align 4, !tbaa !51
  br label %112

112:                                              ; preds = %108, %85
  br label %113

113:                                              ; preds = %112, %28
  %114 = load ptr, ptr %5, align 8, !tbaa !4
  %115 = load ptr, ptr %6, align 8, !tbaa !11
  %116 = load ptr, ptr %7, align 8, !tbaa !11
  %117 = call i32 @cmp(ptr noundef %114, ptr noundef %115, ptr noundef %116)
  %118 = icmp sge i32 %117, 0
  br i1 %118, label %119, label %189

119:                                              ; preds = %113
  %120 = load i32, ptr %11, align 4, !tbaa !9
  %121 = add i32 %120, 1
  store i32 %121, ptr %11, align 4, !tbaa !9
  store i64 0, ptr %14, align 8, !tbaa !63
  store i64 0, ptr %15, align 8, !tbaa !63
  %122 = load ptr, ptr %6, align 8, !tbaa !11
  %123 = getelementptr inbounds nuw %struct.Bigint, ptr %122, i32 0, i32 5
  %124 = getelementptr inbounds [1 x i32], ptr %123, i64 0, i64 0
  store ptr %124, ptr %9, align 8, !tbaa !60
  %125 = load ptr, ptr %7, align 8, !tbaa !11
  %126 = getelementptr inbounds nuw %struct.Bigint, ptr %125, i32 0, i32 5
  %127 = getelementptr inbounds [1 x i32], ptr %126, i64 0, i64 0
  store ptr %127, ptr %12, align 8, !tbaa !60
  br label %128

128:                                              ; preds = %153, %119
  %129 = load ptr, ptr %12, align 8, !tbaa !60
  %130 = getelementptr inbounds nuw i32, ptr %129, i32 1
  store ptr %130, ptr %12, align 8, !tbaa !60
  %131 = load i32, ptr %129, align 4, !tbaa !9
  %132 = zext i32 %131 to i64
  %133 = load i64, ptr %15, align 8, !tbaa !63
  %134 = add i64 %132, %133
  store i64 %134, ptr %17, align 8, !tbaa !63
  %135 = load i64, ptr %17, align 8, !tbaa !63
  %136 = lshr i64 %135, 32
  store i64 %136, ptr %15, align 8, !tbaa !63
  %137 = load ptr, ptr %9, align 8, !tbaa !60
  %138 = load i32, ptr %137, align 4, !tbaa !9
  %139 = zext i32 %138 to i64
  %140 = load i64, ptr %17, align 8, !tbaa !63
  %141 = and i64 %140, 4294967295
  %142 = sub i64 %139, %141
  %143 = load i64, ptr %14, align 8, !tbaa !63
  %144 = sub i64 %142, %143
  store i64 %144, ptr %16, align 8, !tbaa !63
  %145 = load i64, ptr %16, align 8, !tbaa !63
  %146 = lshr i64 %145, 32
  %147 = and i64 %146, 1
  store i64 %147, ptr %14, align 8, !tbaa !63
  %148 = load i64, ptr %16, align 8, !tbaa !63
  %149 = and i64 %148, 4294967295
  %150 = trunc i64 %149 to i32
  %151 = load ptr, ptr %9, align 8, !tbaa !60
  %152 = getelementptr inbounds nuw i32, ptr %151, i32 1
  store ptr %152, ptr %9, align 8, !tbaa !60
  store i32 %150, ptr %151, align 4, !tbaa !9
  br label %153

153:                                              ; preds = %128
  %154 = load ptr, ptr %12, align 8, !tbaa !60
  %155 = load ptr, ptr %13, align 8, !tbaa !60
  %156 = icmp ule ptr %154, %155
  br i1 %156, label %128, label %157, !llvm.loop !91

157:                                              ; preds = %153
  %158 = load ptr, ptr %6, align 8, !tbaa !11
  %159 = getelementptr inbounds nuw %struct.Bigint, ptr %158, i32 0, i32 5
  %160 = getelementptr inbounds [1 x i32], ptr %159, i64 0, i64 0
  store ptr %160, ptr %9, align 8, !tbaa !60
  %161 = load ptr, ptr %9, align 8, !tbaa !60
  %162 = load i32, ptr %8, align 4, !tbaa !9
  %163 = sext i32 %162 to i64
  %164 = getelementptr inbounds i32, ptr %161, i64 %163
  store ptr %164, ptr %10, align 8, !tbaa !60
  %165 = load ptr, ptr %10, align 8, !tbaa !60
  %166 = load i32, ptr %165, align 4, !tbaa !9
  %167 = icmp ne i32 %166, 0
  br i1 %167, label %188, label %168

168:                                              ; preds = %157
  br label %169

169:                                              ; preds = %181, %168
  %170 = load ptr, ptr %10, align 8, !tbaa !60
  %171 = getelementptr inbounds i32, ptr %170, i32 -1
  store ptr %171, ptr %10, align 8, !tbaa !60
  %172 = load ptr, ptr %9, align 8, !tbaa !60
  %173 = icmp ugt ptr %171, %172
  br i1 %173, label %174, label %179

174:                                              ; preds = %169
  %175 = load ptr, ptr %10, align 8, !tbaa !60
  %176 = load i32, ptr %175, align 4, !tbaa !9
  %177 = icmp ne i32 %176, 0
  %178 = xor i1 %177, true
  br label %179

179:                                              ; preds = %174, %169
  %180 = phi i1 [ false, %169 ], [ %178, %174 ]
  br i1 %180, label %181, label %184

181:                                              ; preds = %179
  %182 = load i32, ptr %8, align 4, !tbaa !9
  %183 = add nsw i32 %182, -1
  store i32 %183, ptr %8, align 4, !tbaa !9
  br label %169, !llvm.loop !92

184:                                              ; preds = %179
  %185 = load i32, ptr %8, align 4, !tbaa !9
  %186 = load ptr, ptr %6, align 8, !tbaa !11
  %187 = getelementptr inbounds nuw %struct.Bigint, ptr %186, i32 0, i32 4
  store i32 %185, ptr %187, align 4, !tbaa !51
  br label %188

188:                                              ; preds = %184, %157
  br label %189

189:                                              ; preds = %188, %113
  %190 = load i32, ptr %11, align 4, !tbaa !9
  store i32 %190, ptr %4, align 4
  store i32 1, ptr %18, align 4
  br label %191

191:                                              ; preds = %189, %27
  call void @llvm.lifetime.end.p0(i64 8, ptr %17) #6
  call void @llvm.lifetime.end.p0(i64 8, ptr %16) #6
  call void @llvm.lifetime.end.p0(i64 8, ptr %15) #6
  call void @llvm.lifetime.end.p0(i64 8, ptr %14) #6
  call void @llvm.lifetime.end.p0(i64 8, ptr %13) #6
  call void @llvm.lifetime.end.p0(i64 8, ptr %12) #6
  call void @llvm.lifetime.end.p0(i64 4, ptr %11) #6
  call void @llvm.lifetime.end.p0(i64 8, ptr %10) #6
  call void @llvm.lifetime.end.p0(i64 8, ptr %9) #6
  call void @llvm.lifetime.end.p0(i64 4, ptr %8) #6
  %192 = load i32, ptr %4, align 4
  ret i32 %192
}