; Function Attrs: nofree norecurse nosync nounwind memory(argmem: readwrite) uwtable
define internal fastcc i32 @quorem(ptr noundef captures(none) %0, ptr noundef readonly captures(address) %1) unnamed_addr #7 {
  %3 = getelementptr inbounds nuw i8, ptr %1, i64 20
  %4 = load i32, ptr %3, align 4, !tbaa !38
  %5 = getelementptr inbounds nuw i8, ptr %0, i64 20
  %6 = load i32, ptr %5, align 4, !tbaa !38
  %7 = icmp slt i32 %6, %4
  br i1 %7, label %cmp.exit.thread2, label %8

8:                                                ; preds = %2
  %9 = getelementptr inbounds nuw i8, ptr %1, i64 24
  %10 = add nsw i32 %4, -1
  %11 = sext i32 %10 to i64
  %12 = getelementptr inbounds i32, ptr %9, i64 %11
  %.ptr80.ptr = getelementptr inbounds nuw i8, ptr %0, i64 24
  %.idx = shl nsw i64 %11, 2
  %13 = getelementptr i8, ptr %0, i64 %.idx
  %.ptr81 = getelementptr i8, ptr %13, i64 24
  %14 = load i32, ptr %.ptr81, align 4, !tbaa !37
  %15 = load i32, ptr %12, align 4, !tbaa !37
  %16 = add i32 %15, 1
  %17 = udiv i32 %14, %16
  %.not = icmp ugt i32 %16, %14
  br i1 %.not, label %42, label %.preheader9

.preheader9:                                      ; preds = %8
  %18 = zext i32 %17 to i64
  br label %19

19:                                               ; preds = %.preheader9, %19
  %.070 = phi ptr [ %34, %19 ], [ %.ptr80.ptr, %.preheader9 ]
  %.065 = phi ptr [ %20, %19 ], [ %9, %.preheader9 ]
  %.062 = phi i64 [ %32, %19 ], [ 0, %.preheader9 ]
  %.0 = phi i64 [ %25, %19 ], [ 0, %.preheader9 ]
  %20 = getelementptr inbounds nuw i8, ptr %.065, i64 4
  %21 = load i32, ptr %.065, align 4, !tbaa !37
  %22 = zext i32 %21 to i64
  %23 = mul nuw i64 %22, %18
  %24 = add nuw i64 %23, %.0
  %25 = lshr i64 %24, 32
  %26 = load i32, ptr %.070, align 4, !tbaa !37
  %27 = zext i32 %26 to i64
  %28 = and i64 %24, 4294967295
  %29 = add nuw nsw i64 %.062, %28
  %30 = sub nsw i64 %27, %29
  %31 = lshr i64 %30, 32
  %32 = and i64 %31, 1
  %33 = trunc i64 %30 to i32
  %34 = getelementptr inbounds nuw i8, ptr %.070, i64 4
  store i32 %33, ptr %.070, align 4, !tbaa !37
  %.not78 = icmp ugt ptr %20, %12
  br i1 %.not78, label %35, label %19, !llvm.loop !64

35:                                               ; preds = %19
  %36 = load i32, ptr %.ptr81, align 4, !tbaa !37
  %.not79 = icmp eq i32 %36, 0
  br i1 %.not79, label %.preheader8, label %._crit_edge

._crit_edge:                                      ; preds = %35
  %.pre = load i32, ptr %5, align 4, !tbaa !38
  br label %42

.preheader8:                                      ; preds = %35
  %37 = icmp sgt i32 %4, 2
  br i1 %37, label %.lr.ph.preheader, label %.critedge

.lr.ph.preheader:                                 ; preds = %.preheader8
  %.068.add13 = add nsw i64 %.idx, 20
  br label %.lr.ph

.lr.ph:                                           ; preds = %.lr.ph.preheader, %39
  %.068.add15 = phi i64 [ %.068.add, %39 ], [ %.068.add13, %.lr.ph.preheader ]
  %.17314 = phi i32 [ %40, %39 ], [ %10, %.lr.ph.preheader ]
  %.ptr = getelementptr inbounds i8, ptr %0, i64 %.068.add15
  %38 = load i32, ptr %.ptr, align 4, !tbaa !37
  %.not82 = icmp eq i32 %38, 0
  br i1 %.not82, label %39, label %.critedge

39:                                               ; preds = %.lr.ph
  %40 = add nsw i32 %.17314, -1
  %.068.add = add nsw i64 %.068.add15, -4
  %41 = icmp sgt i64 %.068.add15, 28
  br i1 %41, label %.lr.ph, label %.critedge, !llvm.loop !65

.critedge:                                        ; preds = %.lr.ph, %39, %.preheader8
  %.173.lcssa = phi i32 [ %10, %.preheader8 ], [ %40, %39 ], [ %.17314, %.lr.ph ]
  store i32 %.173.lcssa, ptr %5, align 4, !tbaa !38
  br label %42

42:                                               ; preds = %._crit_edge, %.critedge, %8
  %43 = phi i32 [ %.pre, %._crit_edge ], [ %.173.lcssa, %.critedge ], [ %6, %8 ]
  %.072 = phi i32 [ %10, %._crit_edge ], [ %.173.lcssa, %.critedge ], [ %10, %8 ]
  %44 = load i32, ptr %3, align 4, !tbaa !38
  %.not.i = icmp eq i32 %43, %44
  br i1 %.not.i, label %45, label %cmp.exit

45:                                               ; preds = %42
  %46 = sext i32 %43 to i64
  %.idx.i = shl nsw i64 %46, 2
  %.add.i = add nsw i64 %.idx.i, 24
  %47 = getelementptr inbounds i32, ptr %9, i64 %46
  br label %48

48:                                               ; preds = %54, %45
  %.018.i = phi ptr [ %47, %45 ], [ %50, %54 ]
  %.017.idx.i = phi i64 [ %.add.i, %45 ], [ %.017.add.i, %54 ]
  %.017.add.i = add nsw i64 %.017.idx.i, -4
  %.ptr.i = getelementptr inbounds i8, ptr %0, i64 %.017.add.i
  %49 = load i32, ptr %.ptr.i, align 4, !tbaa !37
  %50 = getelementptr inbounds i8, ptr %.018.i, i64 -4
  %51 = load i32, ptr %50, align 4, !tbaa !37
  %.not23.i = icmp eq i32 %49, %51
  br i1 %.not23.i, label %54, label %52

52:                                               ; preds = %48
  %53 = icmp ult i32 %49, %51
  br i1 %53, label %cmp.exit.thread2, label %cmp.exit.thread.preheader

54:                                               ; preds = %48
  %.not24.i = icmp sgt i64 %.017.idx.i, 28
  br i1 %.not24.i, label %48, label %cmp.exit.thread.preheader

cmp.exit:                                         ; preds = %42
  %.not4 = icmp slt i32 %43, %44
  br i1 %.not4, label %cmp.exit.thread2, label %cmp.exit.thread.preheader

cmp.exit.thread.preheader:                        ; preds = %54, %52, %cmp.exit
  br label %cmp.exit.thread

cmp.exit.thread:                                  ; preds = %cmp.exit.thread.preheader, %cmp.exit.thread
  %.171 = phi ptr [ %65, %cmp.exit.thread ], [ %.ptr80.ptr, %cmp.exit.thread.preheader ]
  %.166 = phi ptr [ %55, %cmp.exit.thread ], [ %9, %cmp.exit.thread.preheader ]
  %.163 = phi i64 [ %63, %cmp.exit.thread ], [ 0, %cmp.exit.thread.preheader ]
  %55 = getelementptr inbounds nuw i8, ptr %.166, i64 4
  %56 = load i32, ptr %.166, align 4, !tbaa !37
  %57 = zext i32 %56 to i64
  %58 = load i32, ptr %.171, align 4, !tbaa !37
  %59 = zext i32 %58 to i64
  %60 = add nuw nsw i64 %.163, %57
  %61 = sub nsw i64 %59, %60
  %62 = lshr i64 %61, 32
  %63 = and i64 %62, 1
  %64 = trunc i64 %61 to i32
  %65 = getelementptr inbounds nuw i8, ptr %.171, i64 4
  store i32 %64, ptr %.171, align 4, !tbaa !37
  %.not83 = icmp ugt ptr %55, %12
  br i1 %.not83, label %66, label %cmp.exit.thread, !llvm.loop !66

66:                                               ; preds = %cmp.exit.thread
  %67 = add i32 %17, 1
  %68 = sext i32 %.072 to i64
  %.idx85 = shl nsw i64 %68, 2
  %69 = getelementptr i8, ptr %0, i64 %.idx85
  %.ptr87 = getelementptr i8, ptr %69, i64 24
  %70 = load i32, ptr %.ptr87, align 4, !tbaa !37
  %.not84 = icmp eq i32 %70, 0
  br i1 %.not84, label %.preheader, label %cmp.exit.thread2

.preheader:                                       ; preds = %66
  %71 = icmp sgt i32 %.072, 1
  br i1 %71, label %.lr.ph21.preheader, label %.critedge2

.lr.ph21.preheader:                               ; preds = %.preheader
  %.169.add18 = add nuw nsw i64 %.idx85, 20
  br label %.lr.ph21

.lr.ph21:                                         ; preds = %.lr.ph21.preheader, %73
  %.169.add20 = phi i64 [ %.169.add, %73 ], [ %.169.add18, %.lr.ph21.preheader ]
  %.219 = phi i32 [ %74, %73 ], [ %.072, %.lr.ph21.preheader ]
  %.ptr86 = getelementptr inbounds i8, ptr %0, i64 %.169.add20
  %72 = load i32, ptr %.ptr86, align 4, !tbaa !37
  %.not88 = icmp eq i32 %72, 0
  br i1 %.not88, label %73, label %.critedge2

73:                                               ; preds = %.lr.ph21
  %74 = add nsw i32 %.219, -1
  %.169.add = add nsw i64 %.169.add20, -4
  %75 = icmp sgt i64 %.169.add20, 28
  br i1 %75, label %.lr.ph21, label %.critedge2, !llvm.loop !67

.critedge2:                                       ; preds = %.lr.ph21, %73, %.preheader
  %.2.lcssa = phi i32 [ %.072, %.preheader ], [ %74, %73 ], [ %.219, %.lr.ph21 ]
  store i32 %.2.lcssa, ptr %5, align 4, !tbaa !38
  br label %cmp.exit.thread2

cmp.exit.thread2:                                 ; preds = %52, %cmp.exit, %.critedge2, %66, %2
  %.064 = phi i32 [ 0, %2 ], [ %67, %66 ], [ %67, %.critedge2 ], [ %17, %cmp.exit ], [ %17, %52 ]
  ret i32 %.064
}